target datalayout = "e-m:e-p270:32:32-p271:32:32-p272:64:64-i64:64-i128:128-f80:128-n8:16:32:64-S128"
target triple = "x86_64-pc-linux-gnu"

%struct.ResourceOwnerDesc = type { ptr, i32, i32, ptr, ptr }
%struct.PrivateRefCountEntry = type { i32, i32 }

@buffer_pin_resowner_desc = dso_local constant %struct.ResourceOwnerDesc { ptr @.str.1, i32 1, i32 200, ptr @ResOwnerReleaseBufferPin, ptr @ResOwnerPrintBufferPin }, align 8
@CurrentResourceOwner = external global ptr, align 8
@LocalRefCount = external global ptr, align 8

; Function Attrs: inlinehint nounwind uwtable
define internal i64 @Int32GetDatum(i32 noundef %0) #3 {
  %2 = alloca i32, align 4
  store i32 %0, ptr %2, align 4
  %3 = load i32, ptr %2, align 4
  %4 = sext i32 %3 to i64
  ret i64 %4
}

; Function Attrs: inlinehint nounwind uwtable
define internal void @ResourceOwnerRememberBuffer(ptr noundef %0, i32 noundef %1) #3 {
  %3 = alloca ptr, align 8
  %4 = alloca i32, align 4
  store ptr %0, ptr %3, align 8
  store i32 %1, ptr %4, align 4
  %5 = load ptr, ptr %3, align 8
  %6 = load i32, ptr %4, align 4
  %7 = call i64 @Int32GetDatum(i32 noundef %6)
  call void @ResourceOwnerRemember(ptr noundef %5, i64 noundef %7, ptr noundef @buffer_pin_resowner_desc)
  ret void
}

; Function Attrs: nounwind uwtable
define dso_local void @IncrBufferRefCount(i32 noundef %0) #0 {
  %2 = alloca i32, align 4
  %3 = alloca ptr, align 8
  store i32 %0, ptr %2, align 4
  %4 = load ptr, ptr @CurrentResourceOwner, align 8
  call void @ResourceOwnerEnlarge(ptr noundef %4)
  %5 = load i32, ptr %2, align 4
  %6 = icmp slt i32 %5, 0
  br i1 %6, label %7, label %16

7:                                                ; preds = %1
  %8 = load ptr, ptr @LocalRefCount, align 8
  %9 = load i32, ptr %2, align 4
  %10 = sub i32 0, %9
  %11 = sub i32 %10, 1
  %12 = sext i32 %11 to i64
  %13 = getelementptr inbounds i32, ptr %8, i64 %12
  %14 = load i32, ptr %13, align 4
  %15 = add i32 %14, 1
  store i32 %15, ptr %13, align 4
  br label %23

16:                                               ; preds = %1
  call void @llvm.lifetime.start.p0(i64 8, ptr %3) #10
  %17 = load i32, ptr %2, align 4
  %18 = call ptr @GetPrivateRefCountEntry(i32 noundef %17, i1 noundef zeroext true)
  store ptr %18, ptr %3, align 8
  %19 = load ptr, ptr %3, align 8
  %20 = getelementptr inbounds nuw %struct.PrivateRefCountEntry, ptr %19, i32 0, i32 1
  %21 = load i32, ptr %20, align 4
  %22 = add i32 %21, 1
  store i32 %22, ptr %20, align 4
  call void @llvm.lifetime.end.p0(i64 8, ptr %3) #10
  br label %23

23:                                               ; preds = %16, %7
  %24 = load ptr, ptr @CurrentResourceOwner, align 8
  %25 = load i32, ptr %2, align 4
  call void @ResourceOwnerRememberBuffer(ptr noundef %24, i32 noundef %25)
  ret void
}