; Function Attrs: nounwind uwtable
define dso_local void @IncrBufferRefCount(i32 noundef %0) local_unnamed_addr #0 {
  %2 = load ptr, ptr @CurrentResourceOwner, align 8
  tail call void @ResourceOwnerEnlarge(ptr noundef %2) #16
  %3 = icmp slt i32 %0, 0
  br i1 %3, label %4, label %11

4:                                                ; preds = %1
  %5 = load ptr, ptr @LocalRefCount, align 8
  %6 = xor i32 %0, -1
  %7 = zext nneg i32 %6 to i64
  %8 = getelementptr inbounds nuw i32, ptr %5, i64 %7
  %9 = load i32, ptr %8, align 4
  %10 = add i32 %9, 1
  store i32 %10, ptr %8, align 4
  br label %16

11:                                               ; preds = %1
  %12 = tail call fastcc ptr @GetPrivateRefCountEntry(i32 noundef %0, i1 noundef zeroext true)
  %13 = getelementptr inbounds nuw i8, ptr %12, i64 4
  %14 = load i32, ptr %13, align 4
  %15 = add i32 %14, 1
  store i32 %15, ptr %13, align 4
  br label %16

16:                                               ; preds = %11, %4
  %17 = load ptr, ptr @CurrentResourceOwner, align 8
  %18 = sext i32 %0 to i64
  tail call void @ResourceOwnerRemember(ptr noundef %17, i64 noundef %18, ptr noundef nonnull @buffer_pin_resowner_desc) #16
  ret void
}